; Function Attrs: nofree nosync nounwind memory(argmem: readwrite) uwtable
define range(i32 -1, 2) i32 @Str_MuxFindPath_rec(ptr noundef readonly captures(none) %0, ptr noundef writeonly captures(none) %1, ptr noundef captures(none) %2) local_unnamed_addr #11 {
  %4 = getelementptr inbounds nuw i8, ptr %0, i64 24
  %5 = load i32, ptr %4, align 4, !tbaa !138
  %6 = getelementptr inbounds nuw i8, ptr %0, i64 40
  %7 = load i32, ptr %6, align 4, !tbaa !138
  %8 = getelementptr inbounds nuw i8, ptr %0, i64 56
  %9 = load i32, ptr %8, align 4, !tbaa !138
  %10 = tail call noundef i32 @llvm.smax.i32(i32 %7, i32 %9)
  %11 = tail call noundef i32 @llvm.smax.i32(i32 %5, i32 %10)
  %12 = getelementptr i8, ptr %0, i64 24
  br label %13

13:                                               ; preds = %3, %22
  %14 = phi i1 [ true, %3 ], [ false, %22 ]
  %indvars.iv = phi i64 [ 0, %3 ], [ 1, %22 ]
  %15 = shl nuw nsw i64 %indvars.iv, 4
  %16 = getelementptr i8, ptr %12, i64 %15
  %17 = load i32, ptr %16, align 4, !tbaa !138
  %18 = icmp eq i32 %17, %11
  br i1 %18, label %19, label %22

19:                                               ; preds = %13
  %20 = trunc nuw nsw i64 %indvars.iv to i32
  %21 = tail call i32 @Str_MuxFindPathEdge_rec(ptr noundef nonnull %0, i32 noundef %20, ptr noundef %1, ptr noundef %2)
  br label %25

22:                                               ; preds = %13
  br i1 %14, label %13, label %23, !llvm.loop !152

23:                                               ; preds = %22
  %24 = icmp ne i32 %9, %11
  %. = sext i1 %24 to i32
  br label %25

25:                                               ; preds = %23, %19
  %.0 = phi i32 [ %21, %19 ], [ %., %23 ]
  ret i32 %.0
}